(dp0
S'targetPath'
p1
S'/Users/ysec/Desktop/AutoRelease'
p2
sS'projectPath'
p3
S'/Users/ysec/Desktop/GitHub/iOS/YDProject/CloudTest'
p4
sS'hasWorkspace'
p5
I01
sS'targetName'
p6
S'CloudTest'
p7
sS'projectName'
p8
S'YDProject'
p9
s.